; Function Attrs: null_pointer_is_valid sspstrong uwtable
define hidden i32 @samr_dissect_struct_Password(ptr noundef %0, i32 noundef %1, ptr noundef %2, ptr noundef %3, ptr noundef %4, ptr noundef %5, i32 noundef %6, i32 noundef %7) local_unnamed_addr #0 {
  %.not = icmp eq ptr %3, null
  br i1 %.not, label %13, label %9

9:                                                ; preds = %8
  %10 = tail call ptr @proto_tree_add_item(ptr noundef nonnull %3, i32 noundef %6, ptr noundef %0, i32 noundef %1, i32 noundef -1, i32 noundef 0)
  %11 = load i32, ptr @ett_samr_samr_Password, align 4
  %12 = tail call ptr @proto_item_add_subtree(ptr noundef %10, i32 noundef %11)
  br label %13

13:                                               ; preds = %9, %8
  %.016 = phi ptr [ %10, %9 ], [ null, %8 ]
  %.0 = phi ptr [ %12, %9 ], [ null, %8 ]
  br label %14

14:                                               ; preds = %14, %13
  %.010.i = phi i32 [ 0, %13 ], [ %17, %14 ]
  %.089.i = phi i32 [ %1, %13 ], [ %16, %14 ]
  %15 = load i32, ptr @hf_samr_samr_Password_hash, align 4
  %16 = tail call i32 @PIDL_dissect_uint8(ptr noundef %0, i32 noundef %.089.i, ptr noundef %2, ptr noundef %.0, ptr noundef %4, ptr noundef %5, i32 noundef %15, i32 noundef 0)
  %17 = add nuw nsw i32 %.010.i, 1
  %exitcond.not.i = icmp eq i32 %17, 16
  br i1 %exitcond.not.i, label %samr_dissect_element_Password_hash.exit, label %14, !llvm.loop !8

samr_dissect_element_Password_hash.exit:          ; preds = %14
  %18 = sub i32 %16, %1
  tail call void @proto_item_set_len(ptr noundef %.016, i32 noundef %18)
  ret i32 %16
}